; Function Attrs: nounwind uwtable
define hidden ptr @VP8BitWriterFinish(ptr noundef captures(none) %0) local_unnamed_addr #0 {
  %2 = getelementptr inbounds nuw i8, ptr %0, i64 12
  %3 = load i32, ptr %2, align 4, !tbaa !13
  %4 = sub i32 8, %3
  %5 = shl nuw i32 1, %4
  %6 = getelementptr inbounds nuw i8, ptr %0, i64 4
  br label %7

7:                                                ; preds = %VP8PutBitUniform.exit.i, %1
  %.05.i = phi i32 [ %5, %1 ], [ %22, %VP8PutBitUniform.exit.i ]
  %8 = load i32, ptr %0, align 8, !tbaa !3
  %9 = ashr i32 %8, 1
  store i32 %9, ptr %0, align 8, !tbaa !3
  %10 = icmp slt i32 %9, 127
  br i1 %10, label %11, label %VP8PutBitUniform.exit.i

11:                                               ; preds = %7
  %12 = sext i32 %9 to i64
  %13 = getelementptr inbounds [128 x i8], ptr @kNewRange, i64 0, i64 %12
  %14 = load i8, ptr %13, align 1, !tbaa !12
  %15 = zext i8 %14 to i32
  store i32 %15, ptr %0, align 8, !tbaa !3
  %16 = load i32, ptr %6, align 4, !tbaa !11
  %17 = shl i32 %16, 1
  store i32 %17, ptr %6, align 4, !tbaa !11
  %18 = load i32, ptr %2, align 4, !tbaa !13
  %19 = add nsw i32 %18, 1
  store i32 %19, ptr %2, align 4, !tbaa !13
  %20 = icmp sgt i32 %18, -1
  br i1 %20, label %21, label %VP8PutBitUniform.exit.i

21:                                               ; preds = %11
  tail call fastcc void @Flush(ptr noundef nonnull %0)
  br label %VP8PutBitUniform.exit.i

VP8PutBitUniform.exit.i:                          ; preds = %21, %11, %7
  %22 = lshr i32 %.05.i, 1
  %.not.i = icmp ult i32 %.05.i, 2
  br i1 %.not.i, label %VP8PutBits.exit, label %7, !llvm.loop !21

VP8PutBits.exit:                                  ; preds = %VP8PutBitUniform.exit.i
  store i32 0, ptr %2, align 4, !tbaa !13
  tail call fastcc void @Flush(ptr noundef nonnull %0)
  %23 = getelementptr inbounds nuw i8, ptr %0, i64 16
  %24 = load ptr, ptr %23, align 8, !tbaa !17
  ret ptr %24
}